target datalayout = "e-m:e-p270:32:32-p271:32:32-p272:64:64-i64:64-i128:128-f80:128-n8:16:32:64-S128"
target triple = "x86_64-unknown-linux-gnu"

; Function Attrs: mustprogress uwtable
define noundef ptr @_ZN7Imf_3_213newCompressorENS_11CompressionEmRKNS_6HeaderE(i32 noundef %c, i64 noundef %maxScanLineSize, ptr noundef nonnull align 1 %hdr) #6 personality ptr @__gxx_personality_v0 {
entry:
  %retval = alloca ptr, align 8
  %c.addr = alloca i32, align 4
  %maxScanLineSize.addr = alloca i64, align 8
  %hdr.addr = alloca ptr, align 8
  %exn.slot = alloca ptr, align 8
  %ehselector.slot = alloca i32, align 4
  store i32 %c, ptr %c.addr, align 4
  store i64 %maxScanLineSize, ptr %maxScanLineSize.addr, align 8
  store ptr %hdr, ptr %hdr.addr, align 8
  %0 = load i32, ptr %c.addr, align 4
  switch i32 %0, label %sw.default [
    i32 1, label %sw.bb
    i32 2, label %sw.bb1
    i32 3, label %sw.bb5
    i32 4, label %sw.bb9
    i32 5, label %sw.bb13
    i32 6, label %sw.bb17
    i32 7, label %sw.bb21
    i32 8, label %sw.bb25
    i32 9, label %sw.bb29
  ]

sw.bb:                                            ; preds = %entry
  %call = call noalias noundef nonnull ptr @_Znwm(i64 noundef 40) #10
  %1 = load ptr, ptr %hdr.addr, align 8
  %2 = load i64, ptr %maxScanLineSize.addr, align 8
  invoke void @_ZN7Imf_3_213RleCompressorC1ERKNS_6HeaderEm(ptr noundef nonnull align 8 dereferenceable(40) %call, ptr noundef nonnull align 1 %1, i64 noundef %2)
          to label %invoke.cont unwind label %lpad

invoke.cont:                                      ; preds = %sw.bb
  store ptr %call, ptr %retval, align 8
  br label %return

lpad:                                             ; preds = %sw.bb
  %3 = landingpad { ptr, i32 }
          cleanup
  %4 = extractvalue { ptr, i32 } %3, 0
  store ptr %4, ptr %exn.slot, align 8
  %5 = extractvalue { ptr, i32 } %3, 1
  store i32 %5, ptr %ehselector.slot, align 4
  call void @_ZdlPv(ptr noundef %call) #11
  br label %eh.resume

sw.bb1:                                           ; preds = %entry
  %call2 = call noalias noundef nonnull ptr @_Znwm(i64 noundef 56) #10
  %6 = load ptr, ptr %hdr.addr, align 8
  %7 = load i64, ptr %maxScanLineSize.addr, align 8
  invoke void @_ZN7Imf_3_213ZipCompressorC1ERKNS_6HeaderEmm(ptr noundef nonnull align 8 dereferenceable(56) %call2, ptr noundef nonnull align 1 %6, i64 noundef %7, i64 noundef 1)
          to label %invoke.cont4 unwind label %lpad3

invoke.cont4:                                     ; preds = %sw.bb1
  store ptr %call2, ptr %retval, align 8
  br label %return

lpad3:                                            ; preds = %sw.bb1
  %8 = landingpad { ptr, i32 }
          cleanup
  %9 = extractvalue { ptr, i32 } %8, 0
  store ptr %9, ptr %exn.slot, align 8
  %10 = extractvalue { ptr, i32 } %8, 1
  store i32 %10, ptr %ehselector.slot, align 4
  call void @_ZdlPv(ptr noundef %call2) #11
  br label %eh.resume

sw.bb5:                                           ; preds = %entry
  %call6 = call noalias noundef nonnull ptr @_Znwm(i64 noundef 56) #10
  %11 = load ptr, ptr %hdr.addr, align 8
  %12 = load i64, ptr %maxScanLineSize.addr, align 8
  invoke void @_ZN7Imf_3_213ZipCompressorC1ERKNS_6HeaderEmm(ptr noundef nonnull align 8 dereferenceable(56) %call6, ptr noundef nonnull align 1 %11, i64 noundef %12, i64 noundef 16)
          to label %invoke.cont8 unwind label %lpad7

invoke.cont8:                                     ; preds = %sw.bb5
  store ptr %call6, ptr %retval, align 8
  br label %return

lpad7:                                            ; preds = %sw.bb5
  %13 = landingpad { ptr, i32 }
          cleanup
  %14 = extractvalue { ptr, i32 } %13, 0
  store ptr %14, ptr %exn.slot, align 8
  %15 = extractvalue { ptr, i32 } %13, 1
  store i32 %15, ptr %ehselector.slot, align 4
  call void @_ZdlPv(ptr noundef %call6) #11
  br label %eh.resume

sw.bb9:                                           ; preds = %entry
  %call10 = call noalias noundef nonnull ptr @_Znwm(i64 noundef 88) #10
  %16 = load ptr, ptr %hdr.addr, align 8
  %17 = load i64, ptr %maxScanLineSize.addr, align 8
  invoke void @_ZN7Imf_3_213PizCompressorC1ERKNS_6HeaderEmm(ptr noundef nonnull align 8 dereferenceable(84) %call10, ptr noundef nonnull align 1 %16, i64 noundef %17, i64 noundef 32)
          to label %invoke.cont12 unwind label %lpad11

invoke.cont12:                                    ; preds = %sw.bb9
  store ptr %call10, ptr %retval, align 8
  br label %return

lpad11:                                           ; preds = %sw.bb9
  %18 = landingpad { ptr, i32 }
          cleanup
  %19 = extractvalue { ptr, i32 } %18, 0
  store ptr %19, ptr %exn.slot, align 8
  %20 = extractvalue { ptr, i32 } %18, 1
  store i32 %20, ptr %ehselector.slot, align 4
  call void @_ZdlPv(ptr noundef %call10) #11
  br label %eh.resume

sw.bb13:                                          ; preds = %entry
  %call14 = call noalias noundef nonnull ptr @_Znwm(i64 noundef 64) #10
  %21 = load ptr, ptr %hdr.addr, align 8
  %22 = load i64, ptr %maxScanLineSize.addr, align 8
  invoke void @_ZN7Imf_3_215Pxr24CompressorC1ERKNS_6HeaderEmm(ptr noundef nonnull align 8 dereferenceable(60) %call14, ptr noundef nonnull align 1 %21, i64 noundef %22, i64 noundef 16)
          to label %invoke.cont16 unwind label %lpad15

invoke.cont16:                                    ; preds = %sw.bb13
  store ptr %call14, ptr %retval, align 8
  br label %return

lpad15:                                           ; preds = %sw.bb13
  %23 = landingpad { ptr, i32 }
          cleanup
  %24 = extractvalue { ptr, i32 } %23, 0
  store ptr %24, ptr %exn.slot, align 8
  %25 = extractvalue { ptr, i32 } %23, 1
  store i32 %25, ptr %ehselector.slot, align 4
  call void @_ZdlPv(ptr noundef %call14) #11
  br label %eh.resume

sw.bb17:                                          ; preds = %entry
  %call18 = call noalias noundef nonnull ptr @_Znwm(i64 noundef 88) #10
  %26 = load ptr, ptr %hdr.addr, align 8
  %27 = load i64, ptr %maxScanLineSize.addr, align 8
  invoke void @_ZN7Imf_3_213B44CompressorC1ERKNS_6HeaderEmmb(ptr noundef nonnull align 8 dereferenceable(84) %call18, ptr noundef nonnull align 1 %26, i64 noundef %27, i64 noundef 32, i1 noundef zeroext false)
          to label %invoke.cont20 unwind label %lpad19

invoke.cont20:                                    ; preds = %sw.bb17
  store ptr %call18, ptr %retval, align 8
  br label %return

lpad19:                                           ; preds = %sw.bb17
  %28 = landingpad { ptr, i32 }
          cleanup
  %29 = extractvalue { ptr, i32 } %28, 0
  store ptr %29, ptr %exn.slot, align 8
  %30 = extractvalue { ptr, i32 } %28, 1
  store i32 %30, ptr %ehselector.slot, align 4
  call void @_ZdlPv(ptr noundef %call18) #11
  br label %eh.resume

sw.bb21:                                          ; preds = %entry
  %call22 = call noalias noundef nonnull ptr @_Znwm(i64 noundef 88) #10
  %31 = load ptr, ptr %hdr.addr, align 8
  %32 = load i64, ptr %maxScanLineSize.addr, align 8
  invoke void @_ZN7Imf_3_213B44CompressorC1ERKNS_6HeaderEmmb(ptr noundef nonnull align 8 dereferenceable(84) %call22, ptr noundef nonnull align 1 %31, i64 noundef %32, i64 noundef 32, i1 noundef zeroext true)
          to label %invoke.cont24 unwind label %lpad23

invoke.cont24:                                    ; preds = %sw.bb21
  store ptr %call22, ptr %retval, align 8
  br label %return

lpad23:                                           ; preds = %sw.bb21
  %33 = landingpad { ptr, i32 }
          cleanup
  %34 = extractvalue { ptr, i32 } %33, 0
  store ptr %34, ptr %exn.slot, align 8
  %35 = extractvalue { ptr, i32 } %33, 1
  store i32 %35, ptr %ehselector.slot, align 4
  call void @_ZdlPv(ptr noundef %call22) #11
  br label %eh.resume

sw.bb25:                                          ; preds = %entry
  %call26 = call noalias noundef nonnull ptr @_Znwm(i64 noundef 296) #10
  %36 = load ptr, ptr %hdr.addr, align 8
  %37 = load i64, ptr %maxScanLineSize.addr, align 8
  %conv = trunc i64 %37 to i32
  invoke void @_ZN7Imf_3_213DwaCompressorC1ERKNS_6HeaderEiiNS0_13AcCompressionE(ptr noundef nonnull align 8 dereferenceable(296) %call26, ptr noundef nonnull align 1 %36, i32 noundef %conv, i32 noundef 32, i32 noundef 0)
          to label %invoke.cont28 unwind label %lpad27

invoke.cont28:                                    ; preds = %sw.bb25
  store ptr %call26, ptr %retval, align 8
  br label %return

lpad27:                                           ; preds = %sw.bb25
  %38 = landingpad { ptr, i32 }
          cleanup
  %39 = extractvalue { ptr, i32 } %38, 0
  store ptr %39, ptr %exn.slot, align 8
  %40 = extractvalue { ptr, i32 } %38, 1
  store i32 %40, ptr %ehselector.slot, align 4
  call void @_ZdlPv(ptr noundef %call26) #11
  br label %eh.resume

sw.bb29:                                          ; preds = %entry
  %call30 = call noalias noundef nonnull ptr @_Znwm(i64 noundef 296) #10
  %41 = load ptr, ptr %hdr.addr, align 8
  %42 = load i64, ptr %maxScanLineSize.addr, align 8
  %conv31 = trunc i64 %42 to i32
  invoke void @_ZN7Imf_3_213DwaCompressorC1ERKNS_6HeaderEiiNS0_13AcCompressionE(ptr noundef nonnull align 8 dereferenceable(296) %call30, ptr noundef nonnull align 1 %41, i32 noundef %conv31, i32 noundef 256, i32 noundef 0)
          to label %invoke.cont33 unwind label %lpad32

invoke.cont33:                                    ; preds = %sw.bb29
  store ptr %call30, ptr %retval, align 8
  br label %return

lpad32:                                           ; preds = %sw.bb29
  %43 = landingpad { ptr, i32 }
          cleanup
  %44 = extractvalue { ptr, i32 } %43, 0
  store ptr %44, ptr %exn.slot, align 8
  %45 = extractvalue { ptr, i32 } %43, 1
  store i32 %45, ptr %ehselector.slot, align 4
  call void @_ZdlPv(ptr noundef %call30) #11
  br label %eh.resume

sw.default:                                       ; preds = %entry
  store ptr null, ptr %retval, align 8
  br label %return

return:                                           ; preds = %sw.default, %invoke.cont33, %invoke.cont28, %invoke.cont24, %invoke.cont20, %invoke.cont16, %invoke.cont12, %invoke.cont8, %invoke.cont4, %invoke.cont
  %46 = load ptr, ptr %retval, align 8
  ret ptr %46

eh.resume:                                        ; preds = %lpad32, %lpad27, %lpad23, %lpad19, %lpad15, %lpad11, %lpad7, %lpad3, %lpad
  %exn = load ptr, ptr %exn.slot, align 8
  %sel = load i32, ptr %ehselector.slot, align 4
  %lpad.val = insertvalue { ptr, i32 } poison, ptr %exn, 0
  %lpad.val34 = insertvalue { ptr, i32 } %lpad.val, i32 %sel, 1
  resume { ptr, i32 } %lpad.val34
}