; Function Attrs: mustprogress uwtable
define noundef ptr @_ZN7Imf_3_213newCompressorENS_11CompressionEmRKNS_6HeaderE(i32 noundef %c, i64 noundef %maxScanLineSize, ptr noundef nonnull align 1 %hdr) local_unnamed_addr #7 personality ptr @__gxx_personality_v0 {
entry:
  switch i32 %c, label %return [
    i32 1, label %sw.bb
    i32 2, label %sw.bb1
    i32 3, label %sw.bb5
    i32 4, label %sw.bb9
    i32 5, label %sw.bb13
    i32 6, label %sw.bb17
    i32 7, label %sw.bb21
    i32 8, label %sw.bb25
    i32 9, label %sw.bb29
  ]

sw.bb:                                            ; preds = %entry
  %call = tail call noalias noundef nonnull dereferenceable(40) ptr @_Znwm(i64 noundef 40) #13
  invoke void @_ZN7Imf_3_213RleCompressorC1ERKNS_6HeaderEm(ptr noundef nonnull align 8 dereferenceable(40) %call, ptr noundef nonnull align 1 %hdr, i64 noundef %maxScanLineSize)
          to label %return unwind label %lpad

lpad:                                             ; preds = %sw.bb
  %0 = landingpad { ptr, i32 }
          cleanup
  br label %eh.resume

sw.bb1:                                           ; preds = %entry
  %call2 = tail call noalias noundef nonnull dereferenceable(56) ptr @_Znwm(i64 noundef 56) #13
  invoke void @_ZN7Imf_3_213ZipCompressorC1ERKNS_6HeaderEmm(ptr noundef nonnull align 8 dereferenceable(56) %call2, ptr noundef nonnull align 1 %hdr, i64 noundef %maxScanLineSize, i64 noundef 1)
          to label %return unwind label %lpad3

lpad3:                                            ; preds = %sw.bb1
  %1 = landingpad { ptr, i32 }
          cleanup
  br label %eh.resume

sw.bb5:                                           ; preds = %entry
  %call6 = tail call noalias noundef nonnull dereferenceable(56) ptr @_Znwm(i64 noundef 56) #13
  invoke void @_ZN7Imf_3_213ZipCompressorC1ERKNS_6HeaderEmm(ptr noundef nonnull align 8 dereferenceable(56) %call6, ptr noundef nonnull align 1 %hdr, i64 noundef %maxScanLineSize, i64 noundef 16)
          to label %return unwind label %lpad7

lpad7:                                            ; preds = %sw.bb5
  %2 = landingpad { ptr, i32 }
          cleanup
  br label %eh.resume

sw.bb9:                                           ; preds = %entry
  %call10 = tail call noalias noundef nonnull dereferenceable(88) ptr @_Znwm(i64 noundef 88) #13
  invoke void @_ZN7Imf_3_213PizCompressorC1ERKNS_6HeaderEmm(ptr noundef nonnull align 8 dereferenceable(84) %call10, ptr noundef nonnull align 1 %hdr, i64 noundef %maxScanLineSize, i64 noundef 32)
          to label %return unwind label %lpad11

lpad11:                                           ; preds = %sw.bb9
  %3 = landingpad { ptr, i32 }
          cleanup
  br label %eh.resume

sw.bb13:                                          ; preds = %entry
  %call14 = tail call noalias noundef nonnull dereferenceable(64) ptr @_Znwm(i64 noundef 64) #13
  invoke void @_ZN7Imf_3_215Pxr24CompressorC1ERKNS_6HeaderEmm(ptr noundef nonnull align 8 dereferenceable(60) %call14, ptr noundef nonnull align 1 %hdr, i64 noundef %maxScanLineSize, i64 noundef 16)
          to label %return unwind label %lpad15

lpad15:                                           ; preds = %sw.bb13
  %4 = landingpad { ptr, i32 }
          cleanup
  br label %eh.resume

sw.bb17:                                          ; preds = %entry
  %call18 = tail call noalias noundef nonnull dereferenceable(88) ptr @_Znwm(i64 noundef 88) #13
  invoke void @_ZN7Imf_3_213B44CompressorC1ERKNS_6HeaderEmmb(ptr noundef nonnull align 8 dereferenceable(84) %call18, ptr noundef nonnull align 1 %hdr, i64 noundef %maxScanLineSize, i64 noundef 32, i1 noundef zeroext false)
          to label %return unwind label %lpad19

lpad19:                                           ; preds = %sw.bb17
  %5 = landingpad { ptr, i32 }
          cleanup
  br label %eh.resume

sw.bb21:                                          ; preds = %entry
  %call22 = tail call noalias noundef nonnull dereferenceable(88) ptr @_Znwm(i64 noundef 88) #13
  invoke void @_ZN7Imf_3_213B44CompressorC1ERKNS_6HeaderEmmb(ptr noundef nonnull align 8 dereferenceable(84) %call22, ptr noundef nonnull align 1 %hdr, i64 noundef %maxScanLineSize, i64 noundef 32, i1 noundef zeroext true)
          to label %return unwind label %lpad23

lpad23:                                           ; preds = %sw.bb21
  %6 = landingpad { ptr, i32 }
          cleanup
  br label %eh.resume

sw.bb25:                                          ; preds = %entry
  %call26 = tail call noalias noundef nonnull dereferenceable(296) ptr @_Znwm(i64 noundef 296) #13
  %conv = trunc i64 %maxScanLineSize to i32
  invoke void @_ZN7Imf_3_213DwaCompressorC1ERKNS_6HeaderEiiNS0_13AcCompressionE(ptr noundef nonnull align 8 dereferenceable(296) %call26, ptr noundef nonnull align 1 %hdr, i32 noundef %conv, i32 noundef 32, i32 noundef 0)
          to label %return unwind label %lpad27

lpad27:                                           ; preds = %sw.bb25
  %7 = landingpad { ptr, i32 }
          cleanup
  br label %eh.resume

sw.bb29:                                          ; preds = %entry
  %call30 = tail call noalias noundef nonnull dereferenceable(296) ptr @_Znwm(i64 noundef 296) #13
  %conv31 = trunc i64 %maxScanLineSize to i32
  invoke void @_ZN7Imf_3_213DwaCompressorC1ERKNS_6HeaderEiiNS0_13AcCompressionE(ptr noundef nonnull align 8 dereferenceable(296) %call30, ptr noundef nonnull align 1 %hdr, i32 noundef %conv31, i32 noundef 256, i32 noundef 0)
          to label %return unwind label %lpad32

lpad32:                                           ; preds = %sw.bb29
  %8 = landingpad { ptr, i32 }
          cleanup
  br label %eh.resume

return:                                           ; preds = %entry, %sw.bb29, %sw.bb25, %sw.bb21, %sw.bb17, %sw.bb13, %sw.bb9, %sw.bb5, %sw.bb1, %sw.bb
  %retval.0 = phi ptr [ %call, %sw.bb ], [ %call2, %sw.bb1 ], [ %call6, %sw.bb5 ], [ %call10, %sw.bb9 ], [ %call14, %sw.bb13 ], [ %call18, %sw.bb17 ], [ %call22, %sw.bb21 ], [ %call26, %sw.bb25 ], [ %call30, %sw.bb29 ], [ null, %entry ]
  ret ptr %retval.0

eh.resume:                                        ; preds = %lpad32, %lpad27, %lpad23, %lpad19, %lpad15, %lpad11, %lpad7, %lpad3, %lpad
  %call30.sink = phi ptr [ %call30, %lpad32 ], [ %call26, %lpad27 ], [ %call22, %lpad23 ], [ %call18, %lpad19 ], [ %call14, %lpad15 ], [ %call10, %lpad11 ], [ %call6, %lpad7 ], [ %call2, %lpad3 ], [ %call, %lpad ]
  %.pn = phi { ptr, i32 } [ %8, %lpad32 ], [ %7, %lpad27 ], [ %6, %lpad23 ], [ %5, %lpad19 ], [ %4, %lpad15 ], [ %3, %lpad11 ], [ %2, %lpad7 ], [ %1, %lpad3 ], [ %0, %lpad ]
  tail call void @_ZdlPv(ptr noundef nonnull %call30.sink) #14
  resume { ptr, i32 } %.pn
}